; Function Attrs: mustprogress uwtable
define void @_ZN6google8protobuf8internal14WireFormatLite23WriteStringMaybeAliasedEiRKNSt7__cxx1112basic_stringIcSt11char_traitsIcESaIcEEEPNS0_2io17CodedOutputStreamE(i32 noundef %0, ptr noundef nonnull align 8 dereferenceable(32) %1, ptr noundef %2) local_unnamed_addr #3 align 2 personality ptr @__gxx_personality_v0 {
  %4 = alloca %"class.google::protobuf::internal::LogMessage", align 8
  %5 = alloca %"class.google::protobuf::internal::LogFinisher", align 1
  %6 = shl i32 %0, 3
  %7 = or disjoint i32 %6, 2
  %8 = getelementptr inbounds i8, ptr %2, i64 64
  %9 = load ptr, ptr %8, align 8
  %10 = load ptr, ptr %2, align 8
  %.not.i.i.i = icmp ugt ptr %10, %9
  br i1 %.not.i.i.i, label %_ZN6google8protobuf2io19EpsCopyOutputStream11EnsureSpaceEPh.exit.i.i, label %11

11:                                               ; preds = %3
  %12 = tail call noundef ptr @_ZN6google8protobuf2io19EpsCopyOutputStream19EnsureSpaceFallbackEPh(ptr noundef nonnull align 8 dereferenceable(59) %2, ptr noundef %9)
  br label %_ZN6google8protobuf2io19EpsCopyOutputStream11EnsureSpaceEPh.exit.i.i

_ZN6google8protobuf2io19EpsCopyOutputStream11EnsureSpaceEPh.exit.i.i: ; preds = %11, %3
  %.0.i.i.i = phi ptr [ %12, %11 ], [ %9, %3 ]
  %13 = icmp ult i32 %7, 128
  %14 = trunc i32 %7 to i8
  br i1 %13, label %15, label %17

15:                                               ; preds = %_ZN6google8protobuf2io19EpsCopyOutputStream11EnsureSpaceEPh.exit.i.i
  store i8 %14, ptr %.0.i.i.i, align 1
  %16 = getelementptr inbounds i8, ptr %.0.i.i.i, i64 1
  br label %_ZN6google8protobuf2io17CodedOutputStream8WriteTagEj.exit

17:                                               ; preds = %_ZN6google8protobuf2io19EpsCopyOutputStream11EnsureSpaceEPh.exit.i.i
  %18 = or i8 %14, -128
  store i8 %18, ptr %.0.i.i.i, align 1
  %19 = lshr i32 %6, 7
  %20 = icmp ult i32 %7, 16384
  br i1 %20, label %21, label %25

21:                                               ; preds = %17
  %22 = trunc nuw nsw i32 %19 to i8
  %23 = getelementptr inbounds i8, ptr %.0.i.i.i, i64 1
  store i8 %22, ptr %23, align 1
  %24 = getelementptr inbounds i8, ptr %.0.i.i.i, i64 2
  br label %_ZN6google8protobuf2io17CodedOutputStream8WriteTagEj.exit

25:                                               ; preds = %17
  %26 = getelementptr inbounds i8, ptr %.0.i.i.i, i64 1
  br label %27

27:                                               ; preds = %27, %25
  %.023.i.i.i = phi ptr [ %26, %25 ], [ %31, %27 ]
  %.022.i.i.i = phi i32 [ %19, %25 ], [ %30, %27 ]
  %28 = trunc i32 %.022.i.i.i to i8
  %29 = or i8 %28, -128
  store i8 %29, ptr %.023.i.i.i, align 1
  %30 = lshr i32 %.022.i.i.i, 7
  %31 = getelementptr inbounds i8, ptr %.023.i.i.i, i64 1
  %32 = icmp ugt i32 %.022.i.i.i, 16383
  br i1 %32, label %27, label %33, !llvm.loop !6

33:                                               ; preds = %27
  %34 = trunc nuw nsw i32 %30 to i8
  %35 = getelementptr inbounds i8, ptr %.023.i.i.i, i64 2
  store i8 %34, ptr %31, align 1
  br label %_ZN6google8protobuf2io17CodedOutputStream8WriteTagEj.exit

_ZN6google8protobuf2io17CodedOutputStream8WriteTagEj.exit: ; preds = %15, %21, %33
  %.0.i1.i.i = phi ptr [ %16, %15 ], [ %24, %21 ], [ %35, %33 ]
  store ptr %.0.i1.i.i, ptr %8, align 8
  %36 = tail call noundef i64 @_ZNKSt7__cxx1112basic_stringIcSt11char_traitsIcESaIcEE4sizeEv(ptr noundef nonnull align 8 dereferenceable(32) %1) #13
  %37 = icmp ugt i64 %36, 2147483647
  br i1 %37, label %38, label %.critedge

38:                                               ; preds = %_ZN6google8protobuf2io17CodedOutputStream8WriteTagEj.exit
  call void @_ZN6google8protobuf8internal10LogMessageC1ENS0_8LogLevelEPKci(ptr noundef nonnull align 8 dereferenceable(56) %4, i32 noundef 3, ptr noundef nonnull @.str, i32 noundef 491)
  %39 = invoke noundef nonnull align 8 dereferenceable(56) ptr @_ZN6google8protobuf8internal10LogMessagelsEPKc(ptr noundef nonnull align 8 dereferenceable(56) %4, ptr noundef nonnull @.str.1)
          to label %40 unwind label %91

40:                                               ; preds = %38
  invoke void @_ZN6google8protobuf8internal11LogFinisheraSERNS1_10LogMessageE(ptr noundef nonnull align 1 dereferenceable(1) %5, ptr noundef nonnull align 8 dereferenceable(56) %39)
          to label %41 unwind label %91

41:                                               ; preds = %40
  call void @_ZN6google8protobuf8internal10LogMessageD1Ev(ptr noundef nonnull align 8 dereferenceable(56) %4) #13
  br label %.critedge

.critedge:                                        ; preds = %_ZN6google8protobuf2io17CodedOutputStream8WriteTagEj.exit, %41
  %42 = call noundef i64 @_ZNKSt7__cxx1112basic_stringIcSt11char_traitsIcESaIcEE4sizeEv(ptr noundef nonnull align 8 dereferenceable(32) %1) #13
  %43 = trunc i64 %42 to i32
  %44 = load ptr, ptr %8, align 8
  %45 = load ptr, ptr %2, align 8
  %.not.i.i = icmp ugt ptr %45, %44
  br i1 %.not.i.i, label %_ZN6google8protobuf2io19EpsCopyOutputStream11EnsureSpaceEPh.exit.i, label %46

46:                                               ; preds = %.critedge
  %47 = call noundef ptr @_ZN6google8protobuf2io19EpsCopyOutputStream19EnsureSpaceFallbackEPh(ptr noundef nonnull align 8 dereferenceable(59) %2, ptr noundef %44)
  br label %_ZN6google8protobuf2io19EpsCopyOutputStream11EnsureSpaceEPh.exit.i

_ZN6google8protobuf2io19EpsCopyOutputStream11EnsureSpaceEPh.exit.i: ; preds = %46, %.critedge
  %.0.i.i = phi ptr [ %47, %46 ], [ %44, %.critedge ]
  %48 = icmp ult i32 %43, 128
  %49 = trunc i64 %42 to i8
  br i1 %48, label %50, label %52

50:                                               ; preds = %_ZN6google8protobuf2io19EpsCopyOutputStream11EnsureSpaceEPh.exit.i
  store i8 %49, ptr %.0.i.i, align 1
  %51 = getelementptr inbounds i8, ptr %.0.i.i, i64 1
  br label %_ZN6google8protobuf2io17CodedOutputStream13WriteVarint32Ej.exit

52:                                               ; preds = %_ZN6google8protobuf2io19EpsCopyOutputStream11EnsureSpaceEPh.exit.i
  %53 = or i8 %49, -128
  store i8 %53, ptr %.0.i.i, align 1
  %54 = lshr i32 %43, 7
  %55 = icmp ult i32 %43, 16384
  br i1 %55, label %56, label %60

56:                                               ; preds = %52
  %57 = trunc nuw nsw i32 %54 to i8
  %58 = getelementptr inbounds i8, ptr %.0.i.i, i64 1
  store i8 %57, ptr %58, align 1
  %59 = getelementptr inbounds i8, ptr %.0.i.i, i64 2
  br label %_ZN6google8protobuf2io17CodedOutputStream13WriteVarint32Ej.exit

60:                                               ; preds = %52
  %61 = getelementptr inbounds i8, ptr %.0.i.i, i64 1
  br label %62

62:                                               ; preds = %62, %60
  %.023.i.i = phi ptr [ %61, %60 ], [ %66, %62 ]
  %.022.i.i = phi i32 [ %54, %60 ], [ %65, %62 ]
  %63 = trunc i32 %.022.i.i to i8
  %64 = or i8 %63, -128
  store i8 %64, ptr %.023.i.i, align 1
  %65 = lshr i32 %.022.i.i, 7
  %66 = getelementptr inbounds i8, ptr %.023.i.i, i64 1
  %67 = icmp ugt i32 %.022.i.i, 16383
  br i1 %67, label %62, label %68, !llvm.loop !6

68:                                               ; preds = %62
  %69 = trunc nuw nsw i32 %65 to i8
  %70 = getelementptr inbounds i8, ptr %.023.i.i, i64 2
  store i8 %69, ptr %66, align 1
  br label %_ZN6google8protobuf2io17CodedOutputStream13WriteVarint32Ej.exit

_ZN6google8protobuf2io17CodedOutputStream13WriteVarint32Ej.exit: ; preds = %50, %56, %68
  %.0.i1.i = phi ptr [ %51, %50 ], [ %59, %56 ], [ %70, %68 ]
  store ptr %.0.i1.i, ptr %8, align 8
  %71 = call noundef ptr @_ZNKSt7__cxx1112basic_stringIcSt11char_traitsIcESaIcEE4dataEv(ptr noundef nonnull align 8 dereferenceable(32) %1) #13
  %72 = call noundef i64 @_ZNKSt7__cxx1112basic_stringIcSt11char_traitsIcESaIcEE4sizeEv(ptr noundef nonnull align 8 dereferenceable(32) %1) #13
  %73 = trunc i64 %72 to i32
  %74 = load ptr, ptr %8, align 8
  %75 = getelementptr inbounds i8, ptr %2, i64 57
  %76 = load i8, ptr %75, align 1
  %77 = trunc i8 %76 to i1
  br i1 %77, label %78, label %80

78:                                               ; preds = %_ZN6google8protobuf2io17CodedOutputStream13WriteVarint32Ej.exit
  %79 = call noundef ptr @_ZN6google8protobuf2io19EpsCopyOutputStream15WriteAliasedRawEPKviPh(ptr noundef nonnull align 8 dereferenceable(59) %2, ptr noundef %71, i32 noundef %73, ptr noundef %74)
  br label %_ZN6google8protobuf2io17CodedOutputStream20WriteRawMaybeAliasedEPKvi.exit

80:                                               ; preds = %_ZN6google8protobuf2io17CodedOutputStream13WriteVarint32Ej.exit
  %81 = load ptr, ptr %2, align 8
  %82 = ptrtoint ptr %81 to i64
  %83 = ptrtoint ptr %74 to i64
  %84 = sub i64 %82, %83
  %sext = shl i64 %72, 32
  %85 = ashr exact i64 %sext, 32
  %86 = icmp slt i64 %84, %85
  br i1 %86, label %87, label %89

87:                                               ; preds = %80
  %88 = call noundef ptr @_ZN6google8protobuf2io19EpsCopyOutputStream16WriteRawFallbackEPKviPh(ptr noundef nonnull align 8 dereferenceable(59) %2, ptr noundef %71, i32 noundef %73, ptr noundef %74)
  br label %_ZN6google8protobuf2io17CodedOutputStream20WriteRawMaybeAliasedEPKvi.exit

89:                                               ; preds = %80
  call void @llvm.memcpy.p0.p0.i64(ptr align 1 %74, ptr align 1 %71, i64 %85, i1 false)
  %90 = getelementptr inbounds i8, ptr %74, i64 %85
  br label %_ZN6google8protobuf2io17CodedOutputStream20WriteRawMaybeAliasedEPKvi.exit

_ZN6google8protobuf2io17CodedOutputStream20WriteRawMaybeAliasedEPKvi.exit: ; preds = %78, %87, %89
  %.0.i.i14 = phi ptr [ %79, %78 ], [ %88, %87 ], [ %90, %89 ]
  store ptr %.0.i.i14, ptr %8, align 8
  ret void

91:                                               ; preds = %40, %38
  %92 = landingpad { ptr, i32 }
          cleanup
  call void @_ZN6google8protobuf8internal10LogMessageD1Ev(ptr noundef nonnull align 8 dereferenceable(56) %4) #13
  resume { ptr, i32 } %92
}